; Function Attrs: nofree norecurse nosync nounwind sspstrong memory(read, inaccessiblemem: none) uwtable
define internal range(i32 -1, 2) i32 @st_locale_insensitive_strcasecmp_i(i64 noundef %0, i64 noundef %1) #18 {
  %3 = inttoptr i64 %0 to ptr
  %4 = inttoptr i64 %1 to ptr
  br label %5

5:                                                ; preds = %11, %2
  %.026.i = phi ptr [ %3, %2 ], [ %13, %11 ]
  %.025.i = phi ptr [ %4, %2 ], [ %12, %11 ]
  %6 = load i8, ptr %.026.i, align 1, !tbaa !42
  %7 = load i8, ptr %.025.i, align 1, !tbaa !42
  %8 = icmp eq i8 %6, 0
  %9 = icmp eq i8 %7, 0
  %or.cond.i = select i1 %8, i1 true, i1 %9
  br i1 %or.cond.i, label %10, label %11

10:                                               ; preds = %5
  %not..i = xor i1 %9, true
  %..i = sext i1 %not..i to i32
  %spec.select35.i = select i1 %8, i32 %..i, i32 1
  br label %rb_parser_st_locale_insensitive_strcasecmp.exit

11:                                               ; preds = %5
  %12 = getelementptr i8, ptr %.025.i, i64 1
  %13 = getelementptr i8, ptr %.026.i, i64 1
  %14 = add i8 %6, -65
  %or.cond5.i = icmp ult i8 %14, 26
  %15 = or disjoint i8 %6, 32
  %spec.select.i = select i1 %or.cond5.i, i8 %15, i8 %6
  %16 = add i8 %7, -65
  %or.cond8.i = icmp ult i8 %16, 26
  %17 = or disjoint i8 %7, 32
  %.0.i = select i1 %or.cond8.i, i8 %17, i8 %7
  %.not.i = icmp eq i8 %spec.select.i, %.0.i
  br i1 %.not.i, label %5, label %18

18:                                               ; preds = %11
  %19 = icmp sgt i8 %spec.select.i, %.0.i
  %.34.i = select i1 %19, i32 1, i32 -1
  br label %rb_parser_st_locale_insensitive_strcasecmp.exit

rb_parser_st_locale_insensitive_strcasecmp.exit:  ; preds = %10, %18
  %.027.i = phi i32 [ %.34.i, %18 ], [ %spec.select35.i, %10 ]
  ret i32 %.027.i
}